; Function Attrs: mustprogress nofree norecurse nosync nounwind memory(readwrite, inaccessiblemem: none) uwtable
define hidden void @_ZN5zxing8BitArray7toBytesEiRNS_8ArrayRefIiEEii(ptr noundef nonnull readonly align 8 captures(none) dereferenceable(88) %0, i32 noundef %1, ptr noundef nonnull readonly align 8 captures(none) dereferenceable(24) %2, i32 noundef %3, i32 noundef %4) local_unnamed_addr #6 align 2 {
  %6 = icmp sgt i32 %4, 0
  br i1 %6, label %.lr.ph, label %._crit_edge

.lr.ph:                                           ; preds = %5
  %7 = getelementptr inbounds nuw i8, ptr %0, i64 32
  %8 = load ptr, ptr %7, align 8, !tbaa !17
  %9 = getelementptr inbounds nuw i8, ptr %8, i64 16
  %10 = load ptr, ptr %9, align 8, !tbaa !18
  %11 = getelementptr inbounds nuw i8, ptr %2, i64 16
  %12 = load ptr, ptr %11, align 8, !tbaa !23
  %13 = getelementptr inbounds nuw i8, ptr %12, i64 16
  %14 = load ptr, ptr %13, align 8, !tbaa !24
  %15 = sext i32 %3 to i64
  %16 = sext i32 %1 to i64
  %wide.trip.count = zext nneg i32 %4 to i64
  %invariant.gep = getelementptr i32, ptr %14, i64 %15
  br label %17

._crit_edge:                                      ; preds = %17, %5
  ret void

17:                                               ; preds = %.lr.ph, %17
  %indvars.iv13 = phi i64 [ %16, %.lr.ph ], [ %indvars.iv.next14, %17 ]
  %indvars.iv = phi i64 [ 0, %.lr.ph ], [ %indvars.iv.next, %17 ]
  %18 = getelementptr inbounds nuw i8, ptr %10, i64 %indvars.iv13
  %19 = load i8, ptr %18, align 1, !tbaa !30
  %.not = icmp ne i8 %19, 0
  %spec.select = zext i1 %.not to i32
  %indvars.iv.next14 = add nsw i64 %indvars.iv13, 1
  %gep = getelementptr i32, ptr %invariant.gep, i64 %indvars.iv
  store i32 %spec.select, ptr %gep, align 4, !tbaa !28
  %indvars.iv.next = add nuw nsw i64 %indvars.iv, 1
  %exitcond.not = icmp eq i64 %indvars.iv.next, %wide.trip.count
  br i1 %exitcond.not, label %._crit_edge, label %17, !llvm.loop !57
}